; Function Attrs: mustprogress nofree norecurse nosync nounwind willreturn memory(argmem: write) uwtable
define hidden range(i32 0, 2) i32 @EVP_DecodedLength(ptr noundef writeonly captures(none) %0, i64 noundef %1) local_unnamed_addr #0 {
  %3 = and i64 %1, 3
  %.not = icmp eq i64 %3, 0
  br i1 %.not, label %4, label %7

4:                                                ; preds = %2
  %5 = lshr exact i64 %1, 2
  %6 = mul nuw i64 %5, 3
  store i64 %6, ptr %0, align 8, !tbaa !18
  br label %7

7:                                                ; preds = %2, %4
  %.0 = phi i32 [ 1, %4 ], [ 0, %2 ]
  ret i32 %.0
}